target datalayout = "e-m:e-p270:32:32-p271:32:32-p272:64:64-i64:64-i128:128-f80:128-n8:16:32:64-S128"
target triple = "x86_64-pc-linux-gnu"

%struct.AVCodecContext = type { ptr, i32, i32, ptr, i32, i32, ptr, ptr, ptr, i64, i32, i32, ptr, i32, %struct.AVRational, %struct.AVRational, %struct.AVRational, i32, i32, i32, i32, i32, %struct.AVRational, i32, i32, i32, i32, i32, i32, i32, i32, i32, i32, i32, ptr, ptr, i32, float, float, float, float, float, float, float, float, float, i32, i32, i32, i32, i32, i32, i32, i32, i32, i32, i32, i32, ptr, ptr, ptr, i32, i32, i32, i32, i32, i32, i32, i32, i32, i32, %struct.AVChannelLayout, i32, i32, i32, i32, i32, i32, i32, i32, ptr, i32, i32, i32, float, float, i32, i32, i32, i32, i32, ptr, i64, i64, float, float, i32, i32, ptr, ptr, i32, i32, i32, i32, i32, ptr, ptr, ptr, ptr, i32, i32, [8 x i64], i32, i32, i32, i32, i32, i32, i32, ptr, ptr, i32, i32, i32, i32, i32, i32, i32, i32, i32, i32, ptr, ptr, i32, i32, ptr, ptr, ptr, ptr, i32, i32, i64, i32, i32, i64, ptr, i64, ptr, i32, ptr, i32 }
%struct.AVRational = type { i32, i32 }
%struct.AVChannelLayout = type { i32, i32, %union.anon.0, ptr }
%union.anon.0 = type { i64 }
%struct.PCMDecode = type { i32 }
%struct.PCMScaleDecode = type { %struct.PCMDecode, ptr, float }
%struct.AVFloatDSPContext = type { ptr, ptr, ptr, ptr, ptr, ptr, ptr, ptr, ptr, ptr, ptr, ptr }

; Function Attrs: cold nounwind optsize uwtable
define internal i32 @pcm_scale_decode_init(ptr noundef %0) #0 {
  %2 = alloca i32, align 4
  %3 = alloca ptr, align 8
  %4 = alloca ptr, align 8
  %5 = alloca ptr, align 8
  %6 = alloca i32, align 4
  store ptr %0, ptr %3, align 8, !tbaa !4
  call void @llvm.lifetime.start.p0(i64 8, ptr %4) #8
  %7 = load ptr, ptr %3, align 8, !tbaa !4
  %8 = getelementptr inbounds nuw %struct.AVCodecContext, ptr %7, i32 0, i32 6
  %9 = load ptr, ptr %8, align 8, !tbaa !9
  store ptr %9, ptr %4, align 8, !tbaa !95
  call void @llvm.lifetime.start.p0(i64 8, ptr %5) #8
  %10 = load ptr, ptr %3, align 8, !tbaa !4
  %11 = getelementptr inbounds nuw %struct.AVCodecContext, ptr %10, i32 0, i32 70
  store i32 3, ptr %11, align 4, !tbaa !39
  %12 = load ptr, ptr %4, align 8, !tbaa !95
  %13 = getelementptr inbounds nuw %struct.PCMScaleDecode, ptr %12, i32 0, i32 0
  %14 = getelementptr inbounds nuw %struct.PCMDecode, ptr %13, i32 0, i32 0
  store i32 4, ptr %14, align 8, !tbaa !130
  %15 = load ptr, ptr %3, align 8, !tbaa !4
  %16 = getelementptr inbounds nuw %struct.AVCodecContext, ptr %15, i32 0, i32 114
  %17 = load i32, ptr %16, align 8, !tbaa !101
  %18 = icmp slt i32 %17, 1
  br i1 %18, label %24, label %19

19:                                               ; preds = %1
  %20 = load ptr, ptr %3, align 8, !tbaa !4
  %21 = getelementptr inbounds nuw %struct.AVCodecContext, ptr %20, i32 0, i32 114
  %22 = load i32, ptr %21, align 8, !tbaa !101
  %23 = icmp sgt i32 %22, 24
  br i1 %23, label %24, label %25

24:                                               ; preds = %19, %1
  store i32 -1094995529, ptr %2, align 4
  store i32 1, ptr %6, align 4
  br label %47

25:                                               ; preds = %19
  %26 = load ptr, ptr %3, align 8, !tbaa !4
  %27 = getelementptr inbounds nuw %struct.AVCodecContext, ptr %26, i32 0, i32 114
  %28 = load i32, ptr %27, align 8, !tbaa !101
  %29 = sub nsw i32 %28, 1
  %30 = shl i32 1, %29
  %31 = sitofp i32 %30 to double
  %32 = fdiv nsz double 1.000000e+00, %31
  %33 = fptrunc nsz double %32 to float
  %34 = load ptr, ptr %4, align 8, !tbaa !95
  %35 = getelementptr inbounds nuw %struct.PCMScaleDecode, ptr %34, i32 0, i32 2
  store float %33, ptr %35, align 8, !tbaa !99
  %36 = call ptr @avpriv_float_dsp_alloc(i32 noundef 0)
  store ptr %36, ptr %5, align 8, !tbaa !131
  %37 = load ptr, ptr %5, align 8, !tbaa !131
  %38 = icmp ne ptr %37, null
  br i1 %38, label %40, label %39

39:                                               ; preds = %25
  store i32 -12, ptr %2, align 4
  store i32 1, ptr %6, align 4
  br label %47

40:                                               ; preds = %25
  %41 = load ptr, ptr %5, align 8, !tbaa !131
  %42 = getelementptr inbounds nuw %struct.AVFloatDSPContext, ptr %41, i32 0, i32 3
  %43 = load ptr, ptr %42, align 8, !tbaa !133
  %44 = load ptr, ptr %4, align 8, !tbaa !95
  %45 = getelementptr inbounds nuw %struct.PCMScaleDecode, ptr %44, i32 0, i32 1
  store ptr %43, ptr %45, align 8, !tbaa !97
  %46 = load ptr, ptr %5, align 8, !tbaa !131
  call void @av_free(ptr noundef %46)
  store i32 0, ptr %2, align 4
  store i32 1, ptr %6, align 4
  br label %47

47:                                               ; preds = %40, %39, %24
  call void @llvm.lifetime.end.p0(i64 8, ptr %5) #8
  call void @llvm.lifetime.end.p0(i64 8, ptr %4) #8
  %48 = load i32, ptr %2, align 4
  ret i32 %48
}