; Function Attrs: cold nounwind optsize uwtable
define internal range(i32 -1094995529, 1) i32 @pcm_scale_decode_init(ptr noundef captures(none) initializes((348, 352)) %0) #2 {
  %2 = getelementptr inbounds nuw i8, ptr %0, i64 32
  %3 = load ptr, ptr %2, align 8, !tbaa !4
  %4 = getelementptr inbounds nuw i8, ptr %0, i64 348
  store i32 3, ptr %4, align 4, !tbaa !34
  store i32 4, ptr %3, align 8, !tbaa !114
  %5 = getelementptr inbounds nuw i8, ptr %0, i64 648
  %6 = load i32, ptr %5, align 8, !tbaa !86
  %7 = add i32 %6, -25
  %or.cond = icmp ult i32 %7, -24
  br i1 %or.cond, label %20, label %8

8:                                                ; preds = %1
  %9 = add nsw i32 %6, -1
  %10 = shl nuw nsw i32 1, %9
  %11 = uitofp nneg i32 %10 to double
  %12 = fdiv nsz double 1.000000e+00, %11
  %13 = fptrunc nsz double %12 to float
  %14 = getelementptr inbounds nuw i8, ptr %3, i64 16
  store float %13, ptr %14, align 8, !tbaa !84
  %15 = tail call ptr @avpriv_float_dsp_alloc(i32 noundef 0) #9
  %.not = icmp eq ptr %15, null
  br i1 %.not, label %20, label %16

16:                                               ; preds = %8
  %17 = getelementptr inbounds nuw i8, ptr %15, i64 24
  %18 = load ptr, ptr %17, align 8, !tbaa !115
  %19 = getelementptr inbounds nuw i8, ptr %3, i64 8
  store ptr %18, ptr %19, align 8, !tbaa !82
  tail call void @av_free(ptr noundef nonnull %15) #9
  br label %20

20:                                               ; preds = %8, %1, %16
  %.0 = phi i32 [ 0, %16 ], [ -1094995529, %1 ], [ -12, %8 ]
  ret i32 %.0
}